(lp0
S'http://87no.blog44.fc2.com'
p1
aS'http://aa2ki.blog108.fc2.com'
p2
aS'http://a800win.atari-area.prv.pl'
p3
aS'http://aballier.wordpress.com'
p4
aS'http://a2-type.co.uk/html/about.html'
p5
aS'http://aballier.wordpress.com/2013/01/18/ffmpeg-vs-libav-a-distribution-maintainer-point-of-view-almost-two-years-after-the-split'
p6
aS'http://a2-type.co.uk/../index.html'
p7
aS'http://abcdobaco.blogspot.com.br/2013/09/clube-de-vinhos-ainda-vale-pena.html#comment-form'
p8
aS'http://aac.uva.nl/de-academische-club'
p9
aS'http://abcdobaco.blogspot.com.br'
p10
aS'http://a2hga.blogspot.com'
p11
aS'http://aac.uva.nl/nieuws'
p12
aS'http://8bit-football.com'
p13
aS'http://abcbirds.wordpress.com#content'
p14
aS'http://aa2ki.blog108.fc2.com/blog-entry-3.html'
p15
aS'http://abandonship.com.au'
p16
aS'http://915367.prodavalnik.com'
p17
aS'http://abcbirds.wordpress.com/page/3'
p18
aS'http://a-kabanova.ru/go'
p19
aS'http://8bit-football.com/wp-content/uploads/2013/12/fernandinho.png'
p20
aS'http://a-kabanova.ru/answers'
p21
aS'http://999999g.web.fc2.com'
p22
aS'http://abcdobaco.blogspot.com.br/2013/09/clube-de-vinhos-ainda-vale-pena.html'
p23
aS'http://8bit-football.com/2013/12/07/world-cup-2014-group-b'
p24
aS'http://8bit-football.com/2013/12/16/fernandinhos-goal-manchester-city-vs-arsenal'
p25
aS'http://8bit-football.com/2013/12/17/world-cup-2014-group-d'
p26
aS'http://9epaybs.net/.'
p27
aS'http://8bit-football.com/2013/11/08/paddy-powers-ballofshame'
p28
aS'http://abcbirds.wordpress.com/about'
p29
aS'http://8bit-football.com#secondary'
p30
aS'http://abcd.engin.umich.edu'
p31
aS'http://a-kabanova.ru/online-private'
p32
aS'http://a2hga.blogspot.com/2012/02/3rd-annual-tour-d-epicure.html'
p33
aS'http://92.243.13.17'
p34
aS'http://8bit-football.com/2013/12/12/world-cup-2014-group-c'
p35
aS'http://aac.uva.nl/agenda'
p36
aS'http://a2-type.co.uk'
p37
aS'http://abaper.blip.pl'
p38
aS'http://aac.uva.nl'
p39
aS'http://aballier.wordpress.com/2008/10/06/alternatives-for-core-tex-binaries'
p40
aS'http://9epaybs.net'
p41
aS'http://abcbirds.wordpress.com'
p42
aS'http://8bit-football.com/2013/12/07/world-cup-2014-group-a'
p43
aS'http://8bit-football.com/2013/01/29/beckham-training-with-arsenal'
p44
aS'http://a-kabanova.ru'
p45
aS'http://a512.blip.pl'
p46
aS'http://aa2ki.blog108.fc2.com/#itiran'
p47
aS'http://8bit-football.com#content'
p48
aS'http://abcbirds.wordpress.com/page/2'
p49
aS'http://a-kabanova.ru/offer'
p50
aS'http://aa2ki.blog108.fc2.com/blog-entry-2.html'
p51
aS'http://aac.uva.nl/lidmaatschap'
p52
aS'http://a-kabanova.ru/status'
p53
aS'http://aaron.ellringer.info'
p54
a.